target datalayout = "e-m:e-p270:32:32-p271:32:32-p272:64:64-i64:64-i128:128-f80:128-n8:16:32:64-S128"
target triple = "x86_64-pc-linux-gnu"

@.str.25 = private unnamed_addr constant [5 x i8] c"size\00", align 1
@.str.26 = private unnamed_addr constant [28 x i8] c"buffer access out of bounds\00", align 1

; Function Attrs: mustprogress uwtable
define internal noundef i32 @_ZL17buffer_readstringP9lua_State(ptr noundef %0) #0 {
  %2 = alloca ptr, align 8
  %3 = alloca i64, align 8
  %4 = alloca ptr, align 8
  %5 = alloca i32, align 4
  %6 = alloca i32, align 4
  store ptr %0, ptr %2, align 8
  store i64 0, ptr %3, align 8
  %7 = load ptr, ptr %2, align 8
  %8 = call noundef ptr @_Z16luaL_checkbufferP9lua_StateiPm(ptr noundef %7, i32 noundef 1, ptr noundef %3)
  store ptr %8, ptr %4, align 8
  %9 = load ptr, ptr %2, align 8
  %10 = call noundef i32 @_Z17luaL_checkintegerP9lua_Statei(ptr noundef %9, i32 noundef 2)
  store i32 %10, ptr %5, align 4
  %11 = load ptr, ptr %2, align 8
  %12 = call noundef i32 @_Z17luaL_checkintegerP9lua_Statei(ptr noundef %11, i32 noundef 3)
  store i32 %12, ptr %6, align 4
  %13 = load i32, ptr %6, align 4
  %14 = icmp sge i32 %13, 0
  br i1 %14, label %15, label %16

15:                                               ; preds = %1
  br label %19

16:                                               ; preds = %1
  %17 = load ptr, ptr %2, align 8
  call void @_Z14luaL_argerrorLP9lua_StateiPKc(ptr noundef %17, i32 noundef 3, ptr noundef @.str.25) #5
  unreachable

18:                                               ; No predecessors!
  br label %19

19:                                               ; preds = %18, %15
  %20 = load i32, ptr %5, align 4
  %21 = zext i32 %20 to i64
  %22 = load i32, ptr %6, align 4
  %23 = zext i32 %22 to i64
  %24 = add i64 %21, %23
  %25 = load i64, ptr %3, align 8
  %26 = icmp ugt i64 %24, %25
  br i1 %26, label %27, label %29

27:                                               ; preds = %19
  %28 = load ptr, ptr %2, align 8
  call void (ptr, ptr, ...) @_Z11luaL_errorLP9lua_StatePKcz(ptr noundef %28, ptr noundef @.str.26) #5
  unreachable

29:                                               ; preds = %19
  %30 = load ptr, ptr %2, align 8
  %31 = load ptr, ptr %4, align 8
  %32 = load i32, ptr %5, align 4
  %33 = sext i32 %32 to i64
  %34 = getelementptr inbounds i8, ptr %31, i64 %33
  %35 = load i32, ptr %6, align 4
  %36 = sext i32 %35 to i64
  call void @_Z15lua_pushlstringP9lua_StatePKcm(ptr noundef %30, ptr noundef %34, i64 noundef %36)
  ret i32 1
}