; Function Attrs: mustprogress uwtable
define internal noundef i32 @_ZL17buffer_readstringP9lua_State(ptr noundef %0) #0 {
  %2 = alloca i64, align 8
  store i64 0, ptr %2, align 8
  %3 = call noundef ptr @_Z16luaL_checkbufferP9lua_StateiPm(ptr noundef %0, i32 noundef 1, ptr noundef nonnull %2)
  %4 = call noundef i32 @_Z17luaL_checkintegerP9lua_Statei(ptr noundef %0, i32 noundef 2)
  %5 = call noundef i32 @_Z17luaL_checkintegerP9lua_Statei(ptr noundef %0, i32 noundef 3)
  %6 = icmp sgt i32 %5, -1
  br i1 %6, label %8, label %7

7:                                                ; preds = %1
  call void @_Z14luaL_argerrorLP9lua_StateiPKc(ptr noundef %0, i32 noundef 3, ptr noundef nonnull @.str.25) #5
  unreachable

8:                                                ; preds = %1
  %9 = zext i32 %4 to i64
  %10 = zext nneg i32 %5 to i64
  %11 = add nuw nsw i64 %10, %9
  %12 = load i64, ptr %2, align 8
  %13 = icmp ugt i64 %11, %12
  br i1 %13, label %14, label %15

14:                                               ; preds = %8
  call void (ptr, ptr, ...) @_Z11luaL_errorLP9lua_StatePKcz(ptr noundef %0, ptr noundef nonnull @.str.26) #5
  unreachable

15:                                               ; preds = %8
  %16 = sext i32 %4 to i64
  %17 = getelementptr inbounds i8, ptr %3, i64 %16
  call void @_Z15lua_pushlstringP9lua_StatePKcm(ptr noundef %0, ptr noundef %17, i64 noundef %10)
  ret i32 1
}